target datalayout = "e-m:e-p270:32:32-p271:32:32-p272:64:64-i64:64-i128:128-f80:128-n8:16:32:64-S128"
target triple = "x86_64-pc-linux-gnu"

@hf_x11_struct_xproto_STR = internal global i32 0, align 4
@hf_x11_struct_xproto_STR_name_len = internal global i32 0, align 4
@hf_x11_struct_xproto_STR_name = internal global i32 0, align 4
@ett_x11_rectangle = internal global i32 0, align 4

; Function Attrs: null_pointer_is_valid sspstrong uwtable
define internal void @listOfByte(ptr noundef %0, ptr noundef %1, ptr noundef %2, i32 noundef %3, i32 noundef %4, i32 noundef %5) #1 {
  %7 = alloca ptr, align 8
  %8 = alloca ptr, align 8
  %9 = alloca ptr, align 8
  %10 = alloca i32, align 4
  %11 = alloca i32, align 4
  %12 = alloca i32, align 4
  store ptr %0, ptr %7, align 8
  store ptr %1, ptr %8, align 8
  store ptr %2, ptr %9, align 8
  store i32 %3, ptr %10, align 4
  store i32 %4, ptr %11, align 4
  store i32 %5, ptr %12, align 4
  %13 = load i32, ptr %11, align 4
  %14 = icmp sle i32 %13, 0
  br i1 %14, label %15, label %16

15:                                               ; preds = %6
  store i32 1, ptr %11, align 4
  br label %16

16:                                               ; preds = %15, %6
  %17 = load ptr, ptr %9, align 8
  %18 = load i32, ptr %10, align 4
  %19 = load ptr, ptr %7, align 8
  %20 = load ptr, ptr %8, align 8
  %21 = load i32, ptr %20, align 4
  %22 = load i32, ptr %11, align 4
  %23 = load i32, ptr %12, align 4
  %24 = call ptr @proto_tree_add_item(ptr noundef %17, i32 noundef %18, ptr noundef %19, i32 noundef %21, i32 noundef %22, i32 noundef %23)
  %25 = load i32, ptr %11, align 4
  %26 = load ptr, ptr %8, align 8
  %27 = load i32, ptr %26, align 4
  %28 = add i32 %27, %25
  store i32 %28, ptr %26, align 4
  ret void
}

; Function Attrs: null_pointer_is_valid sspstrong uwtable
define internal i32 @struct_size_xproto_STR(ptr noundef %0, ptr noundef %1, i32 noundef %2) #1 {
  %4 = alloca ptr, align 8
  %5 = alloca ptr, align 8
  %6 = alloca i32, align 4
  %7 = alloca i32, align 4
  %8 = alloca i32, align 4
  store ptr %0, ptr %4, align 8
  store ptr %1, ptr %5, align 8
  store i32 %2, ptr %6, align 4
  call void @llvm.lifetime.start.p0(i64 4, ptr %7) #11
  store i32 0, ptr %7, align 4
  call void @llvm.lifetime.start.p0(i64 4, ptr %8) #11
  %9 = load ptr, ptr %4, align 8
  %10 = load ptr, ptr %5, align 8
  %11 = load i32, ptr %10, align 4
  %12 = load i32, ptr %7, align 4
  %13 = add i32 %11, %12
  %14 = add i32 %13, 0
  %15 = call zeroext i8 @tvb_get_uint8(ptr noundef %9, i32 noundef %14)
  %16 = zext i8 %15 to i32
  store i32 %16, ptr %8, align 4
  %17 = load i32, ptr %8, align 4
  %18 = mul i32 %17, 1
  %19 = load i32, ptr %7, align 4
  %20 = add i32 %19, %18
  store i32 %20, ptr %7, align 4
  %21 = load i32, ptr %7, align 4
  %22 = add i32 %21, 1
  call void @llvm.lifetime.end.p0(i64 4, ptr %8) #11
  call void @llvm.lifetime.end.p0(i64 4, ptr %7) #11
  ret i32 %22
}

; Function Attrs: null_pointer_is_valid sspstrong uwtable
define internal void @struct_xproto_STR(ptr noundef %0, ptr noundef %1, ptr noundef %2, i32 noundef %3, i32 noundef %4) #1 {
  %6 = alloca ptr, align 8
  %7 = alloca ptr, align 8
  %8 = alloca ptr, align 8
  %9 = alloca i32, align 4
  %10 = alloca i32, align 4
  %11 = alloca i32, align 4
  %12 = alloca ptr, align 8
  %13 = alloca ptr, align 8
  %14 = alloca i32, align 4
  store ptr %0, ptr %6, align 8
  store ptr %1, ptr %7, align 8
  store ptr %2, ptr %8, align 8
  store i32 %3, ptr %9, align 4
  store i32 %4, ptr %10, align 4
  call void @llvm.lifetime.start.p0(i64 4, ptr %11) #11
  store i32 0, ptr %11, align 4
  br label %15

15:                                               ; preds = %54, %5
  %16 = load i32, ptr %11, align 4
  %17 = load i32, ptr %10, align 4
  %18 = icmp slt i32 %16, %17
  br i1 %18, label %19, label %57

19:                                               ; preds = %15
  call void @llvm.lifetime.start.p0(i64 8, ptr %12) #11
  call void @llvm.lifetime.start.p0(i64 8, ptr %13) #11
  call void @llvm.lifetime.start.p0(i64 4, ptr %14) #11
  %20 = load ptr, ptr %8, align 8
  %21 = load i32, ptr @hf_x11_struct_xproto_STR, align 4
  %22 = load ptr, ptr %6, align 8
  %23 = load ptr, ptr %7, align 8
  %24 = load i32, ptr %23, align 4
  %25 = load ptr, ptr %6, align 8
  %26 = load ptr, ptr %7, align 8
  %27 = load i32, ptr %9, align 4
  %28 = call i32 @struct_size_xproto_STR(ptr noundef %25, ptr noundef %26, i32 noundef %27)
  %29 = call ptr @proto_tree_add_item(ptr noundef %20, i32 noundef %21, ptr noundef %22, i32 noundef %24, i32 noundef %28, i32 noundef 0)
  store ptr %29, ptr %12, align 8
  %30 = load ptr, ptr %12, align 8
  %31 = load i32, ptr @ett_x11_rectangle, align 4
  %32 = call ptr @proto_item_add_subtree(ptr noundef %30, i32 noundef %31)
  store ptr %32, ptr %13, align 8
  %33 = load ptr, ptr %6, align 8
  %34 = load ptr, ptr %7, align 8
  %35 = load i32, ptr %34, align 4
  %36 = call zeroext i8 @tvb_get_uint8(ptr noundef %33, i32 noundef %35)
  %37 = zext i8 %36 to i32
  store i32 %37, ptr %14, align 4
  %38 = load ptr, ptr %13, align 8
  %39 = load i32, ptr @hf_x11_struct_xproto_STR_name_len, align 4
  %40 = load ptr, ptr %6, align 8
  %41 = load ptr, ptr %7, align 8
  %42 = load i32, ptr %41, align 4
  %43 = load i32, ptr %9, align 4
  %44 = call ptr @proto_tree_add_item(ptr noundef %38, i32 noundef %39, ptr noundef %40, i32 noundef %42, i32 noundef 1, i32 noundef %43)
  %45 = load ptr, ptr %7, align 8
  %46 = load i32, ptr %45, align 4
  %47 = add i32 %46, 1
  store i32 %47, ptr %45, align 4
  %48 = load ptr, ptr %6, align 8
  %49 = load ptr, ptr %7, align 8
  %50 = load ptr, ptr %13, align 8
  %51 = load i32, ptr @hf_x11_struct_xproto_STR_name, align 4
  %52 = load i32, ptr %14, align 4
  %53 = load i32, ptr %9, align 4
  call void @listOfByte(ptr noundef %48, ptr noundef %49, ptr noundef %50, i32 noundef %51, i32 noundef %52, i32 noundef %53)
  call void @llvm.lifetime.end.p0(i64 4, ptr %14) #11
  call void @llvm.lifetime.end.p0(i64 8, ptr %13) #11
  call void @llvm.lifetime.end.p0(i64 8, ptr %12) #11
  br label %54

54:                                               ; preds = %19
  %55 = load i32, ptr %11, align 4
  %56 = add i32 %55, 1
  store i32 %56, ptr %11, align 4
  br label %15, !llvm.loop !105

57:                                               ; preds = %15
  call void @llvm.lifetime.end.p0(i64 4, ptr %11) #11
  ret void
}