; Function Attrs: null_pointer_is_valid sspstrong uwtable
define internal fastcc void @struct_xproto_STR(ptr noundef %0, ptr noundef captures(none) %1, ptr noundef %2, i32 noundef %3, i32 noundef %4) unnamed_addr #1 {
  %6 = icmp sgt i32 %4, 0
  br i1 %6, label %.lr.ph.preheader, label %._crit_edge

.lr.ph.preheader:                                 ; preds = %5
  %.pre = load i32, ptr %1, align 4
  br label %.lr.ph

.lr.ph:                                           ; preds = %.lr.ph.preheader, %.lr.ph
  %7 = phi i32 [ %27, %.lr.ph ], [ %.pre, %.lr.ph.preheader ]
  %.021 = phi i32 [ %28, %.lr.ph ], [ 0, %.lr.ph.preheader ]
  %8 = load i32, ptr @hf_x11_struct_xproto_STR, align 4
  %9 = tail call zeroext i8 @tvb_get_uint8(ptr noundef %0, i32 noundef %7)
  %10 = zext i8 %9 to i32
  %11 = add nuw nsw i32 %10, 1
  %12 = tail call ptr @proto_tree_add_item(ptr noundef %2, i32 noundef %8, ptr noundef %0, i32 noundef %7, i32 noundef %11, i32 noundef 0)
  %13 = load i32, ptr @ett_x11_rectangle, align 4
  %14 = tail call ptr @proto_item_add_subtree(ptr noundef %12, i32 noundef %13)
  %15 = load i32, ptr %1, align 4
  %16 = tail call zeroext i8 @tvb_get_uint8(ptr noundef %0, i32 noundef %15)
  %17 = load i32, ptr @hf_x11_struct_xproto_STR_name_len, align 4
  %18 = load i32, ptr %1, align 4
  %19 = tail call ptr @proto_tree_add_item(ptr noundef %14, i32 noundef %17, ptr noundef %0, i32 noundef %18, i32 noundef 1, i32 noundef %3)
  %20 = load i32, ptr %1, align 4
  %21 = add i32 %20, 1
  store i32 %21, ptr %1, align 4
  %22 = load i32, ptr @hf_x11_struct_xproto_STR_name, align 4
  %23 = tail call i8 @llvm.umax.i8(i8 %16, i8 1)
  %24 = zext i8 %23 to i32
  %25 = tail call ptr @proto_tree_add_item(ptr noundef %14, i32 noundef %22, ptr noundef %0, i32 noundef %21, i32 noundef %24, i32 noundef %3)
  %26 = load i32, ptr %1, align 4
  %27 = add i32 %26, %24
  store i32 %27, ptr %1, align 4
  %28 = add nuw nsw i32 %.021, 1
  %exitcond.not = icmp eq i32 %28, %4
  br i1 %exitcond.not, label %._crit_edge, label %.lr.ph, !llvm.loop !87

._crit_edge:                                      ; preds = %.lr.ph, %5
  ret void
}